; Function Attrs: nounwind sspstrong uwtable
define internal range(i64 0, 21) i64 @ossl_ec_key_is_public(i64 noundef %0) #0 {
  %2 = tail call ptr @rb_check_typeddata(i64 noundef %0, ptr noundef nonnull @ossl_evp_pkey_type) #7
  %.not = icmp eq ptr %2, null
  br i1 %.not, label %3, label %5

3:                                                ; preds = %1
  %4 = load i64, ptr @rb_eRuntimeError, align 8, !tbaa !6
  tail call void (i64, ptr, ...) @rb_raise(i64 noundef %4, ptr noundef nonnull @.str.66) #9
  unreachable

5:                                                ; preds = %1
  %6 = tail call i32 @EVP_PKEY_get_base_id(ptr noundef nonnull %2) #7
  %.not4 = icmp eq i32 %6, 408
  br i1 %.not4, label %9, label %7

7:                                                ; preds = %5
  %8 = load i64, ptr @rb_eRuntimeError, align 8, !tbaa !6
  tail call void (i64, ptr, ...) @ossl_raise(i64 noundef %8, ptr noundef nonnull @.str.67) #9
  unreachable

9:                                                ; preds = %5
  %10 = tail call ptr @EVP_PKEY_get0_EC_KEY(ptr noundef nonnull %2) #7
  %11 = tail call ptr @EC_KEY_get0_public_key(ptr noundef %10) #7
  %.not5 = icmp eq ptr %11, null
  %12 = select i1 %.not5, i64 0, i64 20
  ret i64 %12
}